(lp0
((lp1
S'hblake13'
p2
aS'man'
p3
aS'...'
p4
aS'hope'
p5
aS'you'
p6
aVguy
p7
aS'can'
p8
aS'somehow'
p9
aS'pull'
p10
aS'of'
p11
aS'the'
p12
aS'miracle'
p13
aS'...'
p14
aS'hurt'
p15
aS'to'
p16
aS'see'
p17
aS'you'
p18
aS'lose'
p19
aS'like'
p20
aS'that'
p21
aS'tonight'
p22
aL0L
tp23
a((lp24
S'definitely'
p25
aS'happy'
p26
aS'to'
p27
aS'be'
p28
aS'on'
p29
aS'my'
p30
aS'way'
p31
aS'home'
p32
aS'it'
p33
aS"'s"
p34
aVbe
p35
aS'long'
p36
aS'day'
p37
aS'but'
p38
aS'unfortunately'
p39
aS'uni'
p40
aS'work'
p41
aVdemand
p42
aS'attention'
p43
aL0L
tp44
a((lp45
S'someone'
p46
aS'take'
p47
aS'me'
p48
aS'home'
p49
aL0L
tp50
a((lp51
S'thatguyfsu_atl'
p52
aVagree
p53
aS'have'
p54
aS"n't"
p55
aS'NOT_listened'
p56
aS'NOT_awhile'
p57
aL4L
tp58
a((lp59
S'jingle'
p60
aVbell
p61
aS'jingle'
p62
aVbell
p63
aS'jingle'
p64
aS'all'
p65
aS'the'
p66
aS'way'
p67
aL4L
tp68
a((lp69
S'lokeshawasthy'
p70
aS'know'
p71
aS'it'
p72
aS"'s"
p73
aS'sad'
p74
aS'it'
p75
aS"'s"
p76
aS'not'
p77
aS'NOT_like'
p78
aS'NOT_matches'
p79
aS'NOT_engrossing'
p80
aS'NOT_that'
p81
aS'NOT_people'
p82
aS'NOT_staying'
p83
aS'NOT_away'
p84
aS'NOT_from'
p85
aS'NOT_twitter'
p86
aS'wt20'
p87
aL0L
tp88
a((lp89
S'gn8'
p90
aS'tweeple'
p91
aL4L
tp92
a((lp93
S'juiceegapeach'
p94
aS'ca'
p95
aS"n't"
p96
aL0L
tp97
a((lp98
S'every1'
p99
aS'follow'
p100
aS'metalikyazz'
p101
aS'she'
p102
aS'sing'
p103
aS'really'
p104
aS'good'
p105
aS'and'
p106
aVplay
p107
aS'guitar'
p108
aS'and'
p109
aS'yazzy'
p110
aS'call'
p111
aS'me'
p112
aS'cuz'
p113
aS'might'
p114
aS'not'
p115
aS'NOT_online'
p116
aS'so'
p117
aS'we'
p118
aS'can'
p119
aS'hang'
p120
aS'out'
p121
aL4L
tp122
a((lp123
S'back'
p124
aS'in'
p125
aS'work'
p126
aL0L
tp127
a((lp128
S'should'
p129
aS'probably'
p130
aS'go'
p131
aS'to'
p132
aS'sleep'
p133
aS'...'
p134
aS'but'
p135
aS"'m"
p136
aS'not'
p137
aS'NOT_sleepy'
p138
aL0L
tp139
a((lp140
S'rachelinajolie'
p141
aS'aw'
p142
aS'sorry'
p143
aS'to'
p144
aS'hear'
p145
aS'that'
p146
aL0L
tp147
a((lp148
Vbe
p149
aS'with'
p150
aS'vianca'
p151
aS'chua'
p152
aL4L
tp153
a((lp154
Vbuy
p155
aS'some'
p156
aVthing
p157
aS'for'
p158
aS'novarock'
p159
aS'festival'
p160
aS'today'
p161
aL4L
tp162
a((lp163
S'movie'
p164
aS'night'
p165
aS'in'
p166
aS'my'
p167
aS'living'
p168
aS'room'
p169
aS'with'
p170
aS'quot'
p171
aS'blast'
p172
aS'from'
p173
aS'the'
p174
aS'past'
p175
aS'quot'
p176
aS'tonight'
p177
aS'gon'
p178
aS'na'
p179
aS'get'
p180
aS'into'
p181
aS'some'
p182
aS'trouble'
p183
aS'ut-oh'
p184
aS'it'
p185
aS'would'
p186
aS'hurt'
p187
aS'my'
p188
aVfeeling
p189
aS'...'
p190
aL0L
tp191
a((lp192
S'roguebluejay'
p193
aS'my'
p194
aS'best'
p195
aS'mate'
p196
aS'at'
p197
aS'school'
p198
aVbe
p199
aS'anglo-dutch'
p200
aS'he'
p201
aS'only'
p202
aVfly
p203
aS'to'
p204
aS'venezuela'
p205
aS'to'
p206
aS'visit'
p207
aS'his'
p208
aVparent
p209
aS'once'
p210
aS'year'
p211
aS'for'
p212
aS'the'
p213
aS'summer'
p214
aS'holiday'
p215
aL0L
tp216
a((lp217
S'all'
p218
aS'alone'
p219
aS'with'
p220
aS'no'
p221
aS'one'
p222
aS'here'
p223
aS'beside'
p224
aS'me'
p225
aS'...'
p226
aL0L
tp227
a((lp228
S'thisisoktane'
p229
aVget
p230
aS'lil'
p231
aS'footage'
p232
aS'last'
p233
aS'night'
p234
aS'but'
p235
aS'didnt'
p236
aS'NOT_yall'
p237
aS'NOT_performan'
p238
aS'NOT_much'
p239
aS'NOT_goin'
p240
aL0L
tp241
a((lp242
S'jasonbradbury'
p243
aS'awesome'
p244
aS'jase'
p245
aS'glad'
p246
aS'you'
p247
aVbe
p248
aVhave
p249
aS'good'
p250
aS'time'
p251
aL4L
tp252
a((lp253
Vneed
p254
aS'to'
p255
aS'get'
p256
aS'ahold'
p257
aS'of'
p258
aS'ryan'
p259
aS'cook'
p260
aS'so'
p261
aS'she'
p262
aS'doesnt'
p263
aS'NOT_have'
p264
aS'NOT_throw'
p265
aS'NOT_halo'
p266
aS'NOT_posters'
p267
aS'NOT_away'
p268
aL0L
tp269
a((lp270
S'ddlovato'
p271
aS'ahh'
p272
aS'cant'
p273
aS'wait'
p274
aS'for'
p275
aS'the'
p276
aS'video'
p277
aL4L
tp278
a((lp279
S'supervegan'
p280
aS'love'
p281
aS'pf'
p282
aVchang
p283
aS'their'
p284
aS'lettuce'
p285
aVwrap
p286
ag248
aS'great'
p287
aS'just'
p288
aS'feel'
p289
aS'so'
p290
aS'upset'
p291
aS'that'
p292
aVtrust
p293
aS'these'
p294
aVbe
p295
aS'vegan'
p296
aVbase
p297
aS'on'
p298
aS'many'
p299
aVsource
p300
aL0L
tp301
a((lp302
S'oh'
p303
aS'thanks'
p304
aS'for'
p305
aS'the'
p306
aS'birthday'
p307
aS'love'
p308
aVfella
p309
aL4L
tp310
a((lp311
S'good'
p312
aS'morning'
p313
aS'^^'
p314
aS'just'
p315
ag230
aS'up'
p316
aL4L
tp317
a((lp318
S'gr'
p319
aS'could'
p320
aS"n't"
p321
aS'NOT_tonight'
p322
aS'NOT_because'
p323
aS'NOT_used'
p324
aS'NOT_card'
p325
aS'NOT_state'
p326
aS'NOT_then'
p327
aS'NOT_tried'
p328
aS'NOT_make'
p329
aS'NOT_large'
p330
aS'NOT_purchase'
p331
aS'NOT_they'
p332
aS'NOT_locked'
p333
aL0L
tp334
a((lp335
S'acez_gv'
p336
aS'family'
p337
aS'website'
p338
aS'my'
p339
aVas
p340
aS'...'
p341
aS'fuck'
p342
aL4L
tp343
a((lp344
S'hotpa'
p345
aS"'m"
p346
aS'sorry'
p347
aS'at'
p348
aS'least'
p349
aS'she'
p350
ag149
aS'in'
p351
aS'wonderful'
p352
aS'place'
p353
aS'now'
p354
aS'and'
p355
aS'keep'
p356
aS'her'
p357
aS'in'
p358
aS'your'
p359
aS'heart'
p360
aS'forever'
p361
aVhave
p362
aS'to'
p363
aS'do'
p364
aS'the'
p365
aS'same'
p366
aS'with'
p367
aS'cat'
p368
aS'and'
p369
aS'dog'
p370
aL0L
tp371
a((lp372
S'markleo82'
p373
aS'morning'
p374
aS'mark'
p375
aS'have'
p376
aS'great'
p377
aS'shootfest'
p378
aS'ahead'
p379
aL4L
tp380
a((lp381
S'sheenanastaja'
p382
aS'yea'
p383
aS'yea'
p384
aS"'ve"
p385
aVwatch
p386
aS'the'
p387
aS'song'
p388
aL4L
tp389
a((lp390
S'have'
p391
aS"n't"
p392
aS'NOT_been'
p393
aS'NOT_twitter'
p394
aS'been'
p395
aS'so'
p396
aS'busy'
p397
aS'so'
p398
aS'tired'
p399
aS'going'
p400
aS'to'
p401
aS'bed'
p402
aL4L
tp403
a((lp404
S'milanteh'
p405
aS'have'
p406
aS'fun'
p407
aS"'m"
p408
aS'sure'
p409
aS'you'
p410
aS"'ll"
p411
aS'do'
p412
aS'fine'
p413
aL4L
tp414
a((lp415
S'my'
p416
aS'cousin'
p417
aS'ate'
p418
aS'all'
p419
aS'my'
p420
aS'chessecake'
p421
aS'maruk'
p422
aS'lo'
p423
aS'dasar'
p424
aL0L
tp425
a((lp426
S'there'
p427
ag248
aS'twenty-six'
p428
aVgoose
p429
aS'on'
p430
aS'the'
p431
aS'sidewalk'
p432
aS'and'
p433
aS'thirty-six'
p434
aVdollar
p435
aS'on'
p436
aS'my'
p437
aS'check'
p438
aL4L
tp439
a((lp440
g230
aS'cold'
p441
aS'vancouver'
p442
aS'weather'
p443
aVchange
p444
aS'so'
p445
aS'fast'
p446
ag199
aS'so'
p447
aVuse
p448
aS'to'
p449
aS'the'
p450
aS'sun'
p451
aS'and'
p452
aS'heat..'
p453
aL0L
tp454
a((lp455
S'djlile'
p456
aS'what'
p457
aVdo
p458
aS'do'
p459
aL0L
tp460
a((lp461
g149
aVhave
p462
aVhero
p463
aS'marathon'
p464
aL4L
tp465
a((lp466
S'tara'
p467
aS'thai'
p468
aS'tonight'
p469
aS'but'
p470
aVassignment
p471
aS'first'
p472
aL0L
tp473
a((lp474
S'here'
p475
aS"'s"
p476
aS'anot'
p477
aS"'m"
p478
aS'proud'
p479
aS'of'
p480
aS'him'
p481
aL4L
tp482
a((lp483
S'caught'
p484
aS'myself'
p485
aVlook
p486
aS'up'
p487
aS'the'
p488
aS'iphone'
p489
aVpromise
p490
aS'would'
p491
aS"n't"
p492
aS'NOT_torcher'
p493
aS'NOT_myself'
p494
aS'NOT_still'
p495
aS'NOT_have6'
p496
aVmonth
p497
aVleave
p498
aS'on'
p499
aS'my'
p500
aS'current'
p501
aS'contract'
p502
aL0L
tp503
a((lp504
Vcuddle
p505
aS'under'
p506
aS'the'
p507
aVcover
p508
aS'...'
p509
aL4L
tp510
a((lp511
S'wont'
p512
aS'get'
p513
aS'to'
p514
aS'see'
p515
aS'any'
p516
aS'of'
p517
aS'my'
p518
aVfriend
p519
aS'for'
p520
aS'while'
p521
aL0L
tp522
a((lp523
S'urbancalvinist'
p524
aS'new'
p525
aS'to'
p526
aS'this'
p527
aS'twitter'
p528
aS'thing'
p529
aS'wa'
p530
aS'back'
p531
aS'in'
p532
aS'louisville'
p533
aS'but'
p534
ag458
aS"n't"
p535
aS'NOT_sorry'
p536
aS"'ll"
p537
aS'be'
p538
aS'back'
p539
aS'again'
p540
aS'in'
p541
aS'two'
p542
aVweek
p543
aL0L
tp544
a((lp545
S'gm'
p546
aS'fbs'
p547
aS'and'
p548
aS'tweeties'
p549
aS'remember'
p550
aS'to'
p551
aS'be'
p552
aS'the'
p553
aS'star'
p554
aS'player'
p555
aS'and'
p556
aS'make'
p557
aS'the'
p558
aS'hataz'
p559
aS'work'
p560
aS'hard'
p561
aS'today'
p562
aS'smile'
p563
aS'hard'
p564
aS'and'
p565
aS'keep'
p566
aS'on'
p567
aS'steppin'
p568
aL4L
tp569
a((lp570
S'think'
p571
aS'for'
p572
aS'my'
p573
aS'bday'
p574
aS'am'
p575
aVgo
p576
aS'to'
p577
aS'the'
p578
aS'magic'
p579
aS'castle'
p580
ag230
aS'invite'
p581
aL4L
tp582
a((lp583
S'ciaoitsmagnoni'
p584
aS'this'
p585
aVmake
p586
aS'mr'
p587
aS'sad'
p588
aS'do'
p589
aS"n't"
p590
aS'NOT_things'
p591
aS'NOT_like'
p592
aS'NOT_that'
p593
aL0L
tp594
a((lp595
S'aww..'
p596
aS'bummer'
p597
aL0L
tp598
a((lp599
Vwant
p600
aS'to'
p601
aS'say'
p602
aS'sorry'
p603
aS'to'
p604
aS'the'
p605
aS'pitman'
p606
aS'building'
p607
aS'for'
p608
aS'setting'
p609
aS'off'
p610
aS'the'
p611
aS'fire'
p612
aS'alarm'
p613
aS'with'
p614
aS'my'
p615
aS'burnt'
p616
aS'toast'
p617
aS'...'
p618
aS'..the'
p619
aVfireman
p620
ag295
aS'nice'
p621
aS'site'
p622
aS'tho'
p623
aL4L
tp624
a((lp625
S'maryabam'
p626
aS'it'
p627
aS"'s"
p628
aS'dark'
p629
aS'blue'
p630
aS'black'
p631
aS'actually'
p632
aL4L
tp633
a((lp634
S'ashleymariej'
p635
aS'nikkidlf'
p636
aS'didnt'
p637
aS'NOT_like'
p638
aS'NOT_mesa'
p639
aS'...'
p640
aS'it'
p641
ag199
aS"n't"
p642
aS'NOT_good'
p643
aS"'d"
p644
aVhop
p645
aS'when'
p646
aS'went'
p647
aS'and'
p648
aS'love'
p649
aS'bobby'
p650
aS'flay'
p651
aL0L
tp652
a((lp653
S'babybritt721'
p654
aS'hope'
p655
aS'you'
p656
aS"'re"
p657
aVhave
p658
aS'good'
p659
aS'weekend'
p660
aS'remember'
p661
aL4L
tp662
a((lp663
S'jamesspeedy'
p664
aS'yup'
p665
aS'finally'
p666
ag230
aS'me'
p667
aS'some'
p668
aS'3gs'
p669
aS'lovin'
p670
aS'at'
p671
aS'the'
p672
aS'fido'
p673
aS'kiosk'
p674
aS'apple'
p675
aS'store'
p676
ag230
aS'bad'
p677
aS'shipment'
p678
aS'of'
p679
aVphone
p680
aL0L
tp681
a((lp682
S'what'
p683
aS'up'
p684
aS'twitter'
p685
aS'world'
p686
aVwatch
p687
aS'am'
p688
aS'celebrity'
p689
aS'get'
p690
aS'me'
p691
aS'out'
p692
aS'of'
p693
aS'here'
p694
aVwait
p695
aS'for'
p696
aS'dateline'
p697
aS'hate'
p698
aVbe
p699
aS'sick'
p700
aL0L
tp701
a((lp702
S'livingwilde'
p703
aS'sarahlena'
p704
aS'oh'
p705
aL0L
tp706
a((lp707
Vgo
p708
aS'to'
p709
aS'watch'
p710
aVfirefly
p711
aS'tonight'
p712
aS'but'
p713
aS'they'
p714
aS"'re"
p715
aS'mostly'
p716
aS'all'
p717
aS'gone'
p718
aS'now'
p719
aS'guess'
p720
aS'they'
p721
aS"'ve"
p722
aS'all'
p723
ag35
aVsex
p724
aS'up'
p725
aS'and'
p726
aS'their'
p727
aS'life'
p728
aS'cycle'
p729
ag149
aS'now'
p730
aS'complete'
p731
aL0L
tp732
a((lp733
S'georgiedaintree'
p734
aS'oh'
p735
aS'no'
p736
aS'it'
p737
aS'wo'
p738
aS"n't"
p739
aS'NOT_stay'
p740
aS'NOT_like'
p741
aS'NOT_this'
p742
aS'think'
p743
aVit
p744
aVsuppose
p745
aS'to'
p746
aS'rain'
p747
aS'at'
p748
aS'some'
p749
aS'point'
p750
aS'this'
p751
aS'week'
p752
aL0L
tp753
a((lp754
S'would'
p755
aS'do'
p756
aS'anything'
p757
aS'if'
p758
aS'could'
p759
aS'sit'
p760
aS'next'
p761
aS'to'
p762
aS'you'
p763
aS'and'
p764
aS'watch'
p765
aS'tv'
p766
aS'with'
p767
aS'you'
p768
aS'mileycyrus'
p769
aS'but'
p770
aS'guess'
p771
aS'thats'
p772
aS'not'
p773
aS'NOT_going'
p774
aS'NOT_happen'
p775
aL0L
tp776
a((lp777
S'my'
p778
aVparent
p779
aS'treat'
p780
aS'me'
p781
aS'like'
p782
aS'baby..i'
p783
aS'kinda'
p784
aS'hate'
p785
aS'my'
p786
aS'life'
p787
aS'right'
p788
aS'now'
p789
aS'but'
p790
aS'have'
p791
aS'the'
p792
aS'best'
p793
aVfriend
p794
aS'ever'
p795
aS'and'
p796
aS'we'
p797
ag362
aS'the'
p798
aS'best'
p799
aS'day'
p800
aS'everr'
p801
aL4L
tp802
a((lp803
S'sugarplumkelly'
p804
aS'you'
p805
aS'know'
p806
aS'where'
p807
aS'to'
p808
aS'write'
p809
aS'me'
p810
aS'for'
p811
aS'longer'
p812
aS'than'
p813
aS'140'
p814
aS'character'
p815
aVmessage
p816
aL4L
tp817
a((lp818
S'the_cameo'
p819
aS'the'
p820
aS'storyline'
p821
aS'between'
p822
aS'rourke'
p823
aS'and'
p824
aS'wood'
p825
aS'and'
p826
aS'the'
p827
aS'job'
p828
aS'at'
p829
aS'the'
p830
aS'store'
p831
aS'copious'
p832
aVamount
p833
aS'of'
p834
aL0L
tp835
a((lp836
S'there'
p837
aS"'s"
p838
aS'no'
p839
aS'one'
p840
aS'here'
p841
aS'no'
p842
aS'one'
p843
aS'just'
p844
aS'...'
p845
aS'me'
p846
aS'aw'
p847
aL0L
tp848
a((lp849
S'darrenhayes'
p850
aS'*i'
p851
aS'hath'
p852
aS'good'
p853
aS'idea'
p854
aL4L
tp855
a((lp856
S'kollegemd'
p857
aS'need'
p858
aS'an'
p859
aS'oil'
p860
aS'change'
p861
aS'too'
p862
aS'come'
p863
aS'get'
p864
aS'the'
p865
aS'escape'
p866
aS'for'
p867
aS'me'
p868
aS'...'
p869
aL0L
tp870
a((lp871
S"c'mon"
p872
aS'squarespace'
p873
aS'am'
p874
aVlose
p875
aVlose
p876
aS'hope'
p877
aS'in'
p878
aS'winning'
p879
aS'gift'
p880
aS'card'
p881
aL0L
tp882
a((lp883
S'just'
p884
ag362
aS'my'
p885
aS'last'
p886
aS'softball'
p887
aS'game'
p888
aS'yeah'
p889
aL4L
tp890
a((lp891
S'gutted'
p892
aS'vodafone'
p893
aS'wont'
p894
aS'repair'
p895
aS'my'
p896
aS'faulty'
p897
aS'samsung'
p898
aS'omnia'
p899
aS'due'
p900
aS'to'
p901
aS'non'
p902
aS'existent'
p903
aS'water'
p904
aS'damage'
p905
aS'gr'
p906
aL0L
tp907
a((lp908
S'smoshian'
p909
aS'what'
p910
aS'channel'
p911
aS'do'
p912
aS'you'
p913
aS'get'
p914
aS'top'
p915
aS'gear'
p916
aS'love'
p917
aS'it'
p918
aS'and'
p919
aS'miss'
p920
aS'it'
p921
aS'and'
p922
aS'worst'
p923
aS'of'
p924
aS'all'
p925
aL0L
tp926
a((lp927
S'sbleby'
p928
aS"'m"
p929
aS'afraid'
p930
aVnephew
p931
ag248
aS'not'
p932
aS'NOT_much'
p933
aS'NOT_option'
p934
aS'but'
p935
aVstepdaughter
p936
ag248
aS'cool'
p937
aS'too'
p938
aL4L
tp939
a((lp940
S'fashion'
p941
aS'r\xef\xbf\xbdcks'
p942
aL4L
tp943
a((lp944
Vwonder
p945
aS'if'
p946
aS'ill'
p947
aS'ever'
p948
aS'become'
p949
aS'an'
p950
aS'actor'
p951
aL0L
tp952
a((lp953
g149
aS'at'
p954
aS'shiloh'
p955
aS'park'
p956
aS'last'
p957
aS'day'
p958
aS'of'
p959
aS'camp'
p960
aS'meeting'
p961
aL0L
tp962
a((lp963
S'wth'
p964
aL4L
tp965
a((lp966
S'honorsociety'
p967
aS'yep'
p968
aL4L
tp969
a((lp970
Vhave
p971
aS'great'
p972
aS'day'
p973
aS'so'
p974
aS'far'
p975
aL4L
tp976
a((lp977
S'wonder'
p978
aS'when'
p979
aS'the'
p980
aS'farro'
p981
aVbrother
p982
aS'esp'
p983
aS'josh'
p984
aS'lt'
p985
aS'will'
p986
aS'give'
p987
aS'in'
p988
aS'to'
p989
aS'twitter'
p990
aL4L
tp991
a((lp992
S'luciddraco'
p993
aS'have'
p994
aS'not'
p995
aS'NOT_heard'
p996
aS'NOT_anything'
p997
aS'NOT_about'
p998
aS'eric'
p999
aS'we'
p1000
aS"'re"
p1001
aS'all'
p1002
aS'anxiously'
p1003
aVwait
p1004
aL0L
tp1005
a((lp1006
S'what'
p1007
aS'great'
p1008
aS'day'
p1009
aS'today..'
p1010
aL4L
tp1011
a((lp1012
S'theogb'
p1013
aS'yeah'
p1014
aS'saw'
p1015
aS'that'
p1016
aS'this'
p1017
aS'morning'
p1018
aS'on'
p1019
aS'here'
p1020
aL0L
tp1021
a((lp1022
S'dinner'
p1023
aS'time'
p1024
aS'already'
p1025
aS'here'
p1026
aS"'s"
p1027
aS'to'
p1028
aS'good'
p1029
aS'week'
p1030
aS'everyone'
p1031
aL4L
tp1032
a((lp1033
S'amandadiva..your'
p1034
aS'music'
p1035
aS'genre'
p1036
aS'under'
p1037
aS'my'
p1038
aS'itunes'
p1039
ag149
aS'hiptronicsoul..'
p1040
aS'that'
p1041
aS"'s"
p1042
aS'new'
p1043
aS'genre'
p1044
aS'me..keep'
p1045
aVmake
p1046
aS'soul'
p1047
aVfill
p1048
aS'fab'
p1049
aS'music'
p1050
aL4L
tp1051
a((lp1052
g155
aS'kinder'
p1053
aS'egg'
p1054
aS'yesterday'
p1055
aS'and'
p1056
aS'the'
p1057
aS'toy'
p1058
ag199
aS'little'
p1059
aS'plastic'
p1060
aS'cat..'
p1061
aS'wtf'
p1062
aS'didnt'
p1063
aS'NOT_even'
p1064
aS'NOT_build'
p1065
aS'building'
p1066
aVit
p1067
aS'the'
p1068
aS'fun'
p1069
aS'part'
p1070
aL0L
tp1071
a((lp1072
S'..only'
p1073
aS'one'
p1074
aS'day'
p1075
aS'left'
p1076
aS'of'
p1077
aS'sb09'
p1078
aL0L
tp1079
a((lp1080
S'brb'
p1081
aL4L
tp1082
a((lp1083
S'r_dirty'
p1084
aS'haha'
p1085
aS'thanks'
p1086
aS'what'
p1087
aS'do'
p1088
aS'you'
p1089
aS'study'
p1090
aS'know..'
p1091
aS'still'
p1092
aS'have'
p1093
aS'till'
p1094
aS'june'
p1095
aS'26th'
p1096
aS'have'
p1097
aS'fun'
p1098
aS'in'
p1099
aS'the'
p1100
aS'water'
p1101
aS'xd'
p1102
aL0L
tp1103
a((lp1104
S'nick_carter'
p1105
aS'yay'
p1106
aS'16'
p1107
aVyear
p1108
aL4L
tp1109
a((lp1110
Vdecide
p1111
aS'to'
p1112
aS'put'
p1113
aS'on'
p1114
aS'clothes'
p1115
aS'...'
p1116
aS'and'
p1117
aS'the'
p1118
aS'rain'
p1119
ag199
aVgo
p1120
aS'when'
p1121
aS'went'
p1122
aS'outside'
p1123
aS'disappointed'
p1124
aL0L
tp1125
a((lp1126
S'robertsemma'
p1127
aS'someone'
p1128
aS'in'
p1129
aS'the'
p1130
aS'uk'
p1131
aVhave
p1132
aVdie
p1133
aS'already'
p1134
aS'from'
p1135
aS'it'
p1136
aL0L
tp1137
a((lp1138
S'andyp007'
p1139
aS'any'
p1140
aVtip
p1141
aS'for'
p1142
aS'someone'
p1143
aS'who'
p1144
ag1132
aS'only'
p1145
aVmake
p1146
aS'it'
p1147
aS'52'
p1148
aS'on'
p1149
aS'flight'
p1150
aS'control'
p1151
aL4L
tp1152
a((lp1153
S'btnalv'
p1154
aS'they'
p1155
ag248
aS'beautiful'
p1156
aS'bettina'
p1157
aL4L
tp1158
a((lp1159
S'tonywade'
p1160
aS'actually'
p1161
aS'for'
p1162
aS'me'
p1163
aS'he'
p1164
aS'can'
p1165
aS'speak'
p1166
aS'the'
p1167
aS'language'
p1168
aS'he'
p1169
aVwant
p1170
aL4L
tp1171
a((lp1172
Vtry
p1173
aVupdate
p1174
aS'mine'
p1175
aS'this'
p1176
aS'am'
p1177
aS'but'
p1178
aVtake
p1179
aS'too'
p1180
aS'long'
p1181
aS'will'
p1182
aS'have'
p1183
aS'to'
p1184
aS'try'
p1185
aS'again'
p1186
aS'later'
p1187
aL0L
tp1188
a((lp1189
S'shaq'
p1190
aS'and'
p1191
aS'lebron'
p1192
aS'on'
p1193
aS'the'
p1194
aS'same'
p1195
aS'team'
p1196
aS'now'
p1197
aS'right'
p1198
aS'before'
p1199
aS'draft'
p1200
aS'day'
p1201
aS'there'
p1202
aVgo
p1203
aS'all'
p1204
aS'of'
p1205
aS'the'
p1206
aS'draft'
p1207
aS'hype'
p1208
aL0L
tp1209
a((lp1210
S'woohoo'
p1211
aS'...'
p1212
aS'it'
p1213
aS"'s"
p1214
aS'the'
p1215
aS'bank'
p1216
aS'holiday'
p1217
aS'weekend'
p1218
aS'huzzah'
p1219
aS'and'
p1220
aS'fudge'
p1221
ag149
aVget
p1222
aS'better'
p1223
aS'double'
p1224
aS'huzzah'
p1225
aL4L
tp1226
a((lp1227
S'nadia520'
p1228
aS'ok'
p1229
aL4L
tp1230
a((lp1231
Vhave
p1232
aS'to'
p1233
aS'refund'
p1234
aS'an'
p1235
aS'advance'
p1236
aVreceive
p1237
aVmonth
p1238
aS'ago'
p1239
aS'due'
p1240
aS'to'
p1241
aS'client'
p1242
aS'not'
p1243
aS'NOT_working'
p1244
aS'NOT_project'
p1245
aS'NOT_personal'
p1246
aS'NOT_reasons'
p1247
aS'that'
p1248
aVhurt
p1249
aS'the'
p1250
aS'bank'
p1251
aL0L
tp1252
a((lp1253
S'emoskank'
p1254
aS"'m"
p1255
aS'home'
p1256
aL0L
tp1257
a((lp1258
S'at'
p1259
aS'work'
p1260
aS'im'
p1261
aS'so'
p1262
aS'ready'
p1263
aS'to'
p1264
aS'go'
p1265
aS'home'
p1266
aL0L
tp1267
a((lp1268
g149
aVwant
p1269
aS'to'
p1270
aS'go'
p1271
aS'to'
p1272
aS'glastonbury'
p1273
aS'and'
p1274
aS'regress'
p1275
aS'into'
p1276
aS'my'
p1277
aS'youth'
p1278
aS'but'
p1279
aS'work'
p1280
ag1132
aVspoil
p1281
aS'that'
p1282
aS'too'
p1283
aL0L
tp1284
a((lp1285
S'miss'
p1286
aS'him'
p1287
aS'could'
p1288
aS'really'
p1289
aS'do'
p1290
aS'with'
p1291
aS'smooch'
p1292
aS'right'
p1293
aS'now'
p1294
aS'...'
p1295
aS'..i'
p1296
aS'hate'
p1297
aVbe
p1298
aS'ill'
p1299
aL0L
tp1300
a((lp1301
S'must'
p1302
aS'go'
p1303
aS'to'
p1304
aS'bed'
p1305
aS'soon'
p1306
aS'...'
p1307
aS'.630am'
p1308
aVcome
p1309
aS'way'
p1310
aS'to'
p1311
aS'fast'
p1312
aL0L
tp1313
a((lp1314
S'kinda'
p1315
aS'mad'
p1316
aS'put'
p1317
aS'an'
p1318
aS'hour'
p1319
aS'in'
p1320
aS'the'
p1321
aS'meter'
p1322
aS'when'
p1323
aS'that'
p1324
aS'took'
p1325
aS'every'
p1326
aS'bit'
p1327
aS'of'
p1328
aVminute
p1329
aL0L
tp1330
a.